; Function Attrs: mustprogress uwtable
define void @_ZN5arrow2io16HadoopFileSystemC2Ev(ptr noundef nonnull align 8 dereferenceable(16) %this) unnamed_addr #0 align 2 personality ptr @__gxx_personality_v0 {
entry:
  store ptr getelementptr inbounds ({ [9 x ptr] }, ptr @_ZTVN5arrow2io16HadoopFileSystemE, i64 0, i32 0, i64 2), ptr %this, align 8
  %impl_ = getelementptr inbounds i8, ptr %this, i64 8
  store ptr null, ptr %impl_, align 8
  %call = invoke noalias noundef nonnull dereferenceable(120) ptr @_Znwm(i64 noundef 120) #20
          to label %invoke.cont unwind label %lpad

invoke.cont:                                      ; preds = %entry
  store ptr null, ptr %call, align 8
  %namenode_host_.i = getelementptr inbounds i8, ptr %call, i64 8
  tail call void @_ZNSt7__cxx1112basic_stringIcSt11char_traitsIcESaIcEEC1Ev(ptr noundef nonnull align 8 dereferenceable(32) %namenode_host_.i) #21
  %user_.i = getelementptr inbounds i8, ptr %call, i64 40
  tail call void @_ZNSt7__cxx1112basic_stringIcSt11char_traitsIcESaIcEEC1Ev(ptr noundef nonnull align 8 dereferenceable(32) %user_.i) #21
  %port_.i = getelementptr inbounds i8, ptr %call, i64 72
  store i32 0, ptr %port_.i, align 8
  %kerb_ticket_.i = getelementptr inbounds i8, ptr %call, i64 80
  tail call void @_ZNSt7__cxx1112basic_stringIcSt11char_traitsIcESaIcEEC1Ev(ptr noundef nonnull align 8 dereferenceable(32) %kerb_ticket_.i) #21
  %fs_.i = getelementptr inbounds i8, ptr %call, i64 112
  store ptr null, ptr %fs_.i, align 8
  %0 = load ptr, ptr %impl_, align 8
  store ptr %call, ptr %impl_, align 8
  %tobool.not.i.i = icmp eq ptr %0, null
  br i1 %tobool.not.i.i, label %_ZNSt10unique_ptrIN5arrow2io16HadoopFileSystem20HadoopFileSystemImplESt14default_deleteIS3_EE5resetEPS3_.exit, label %_ZNKSt14default_deleteIN5arrow2io16HadoopFileSystem20HadoopFileSystemImplEEclEPS3_.exit.i.i

_ZNKSt14default_deleteIN5arrow2io16HadoopFileSystem20HadoopFileSystemImplEEclEPS3_.exit.i.i: ; preds = %invoke.cont
  %kerb_ticket_.i.i.i.i = getelementptr inbounds i8, ptr %0, i64 80
  tail call void @_ZNSt7__cxx1112basic_stringIcSt11char_traitsIcESaIcEED1Ev(ptr noundef nonnull align 8 dereferenceable(32) %kerb_ticket_.i.i.i.i) #21
  %user_.i.i.i.i = getelementptr inbounds i8, ptr %0, i64 40
  tail call void @_ZNSt7__cxx1112basic_stringIcSt11char_traitsIcESaIcEED1Ev(ptr noundef nonnull align 8 dereferenceable(32) %user_.i.i.i.i) #21
  %namenode_host_.i.i.i.i = getelementptr inbounds i8, ptr %0, i64 8
  tail call void @_ZNSt7__cxx1112basic_stringIcSt11char_traitsIcESaIcEED1Ev(ptr noundef nonnull align 8 dereferenceable(32) %namenode_host_.i.i.i.i) #21
  tail call void @_ZdlPv(ptr noundef nonnull %0) #22
  br label %_ZNSt10unique_ptrIN5arrow2io16HadoopFileSystem20HadoopFileSystemImplESt14default_deleteIS3_EE5resetEPS3_.exit

_ZNSt10unique_ptrIN5arrow2io16HadoopFileSystem20HadoopFileSystemImplESt14default_deleteIS3_EE5resetEPS3_.exit: ; preds = %invoke.cont, %_ZNKSt14default_deleteIN5arrow2io16HadoopFileSystem20HadoopFileSystemImplEEclEPS3_.exit.i.i
  ret void

lpad:                                             ; preds = %entry
  %1 = landingpad { ptr, i32 }
          cleanup
  tail call void @_ZNSt10unique_ptrIN5arrow2io16HadoopFileSystem20HadoopFileSystemImplESt14default_deleteIS3_EED2Ev(ptr noundef nonnull align 8 dereferenceable(8) %impl_) #21
  resume { ptr, i32 } %1
}